(lp0
(S'cppflags'
p1
ccopy_reg
_reconstructor
p2
(cino.utils
SpaceList
p3
c__builtin__
list
p4
(lp5
S'-mmcu=atmega328p'
p6
aS'-DF_CPU=16000000L'
p7
aS'-DARDUINO=105'
p8
aS'-I/Applications/Arduino.app/Contents/Resources/Java/hardware/arduino/cores/arduino'
p9
aS'-ffunction-sections'
p10
aS'-fdata-sections'
p11
aS'-g'
p12
aS'-Os'
p13
aS'-w'
p14
aS'-I/Applications/Arduino.app/Contents/Resources/Java/hardware/arduino/variants/standard'
p15
aS'-Ilib/RFID'
p16
aS'-I/Applications/Arduino.app/Contents/Resources/Java/libraries/Servo'
p17
aS'-Ilib/printf'
p18
aS'-Ilib/RFCore'
p19
aS'-I/Applications/Arduino.app/Contents/Resources/Java/libraries/SoftwareSerial'
p20
aS'-Ilib/rf24'
p21
aS'-I/Applications/Arduino.app/Contents/Resources/Java/libraries/SPI'
p22
aS'-I/Applications/Arduino.app/Contents/Resources/Java/hardware/arduino/cores/arduino'
p23
aS'-I/Applications/Arduino.app/Contents/Resources/Java/hardware/arduino/cores/arduino/avr-libc'
p24
atp25
Rp26
tp27
a(S'version.txt'
p28
S'/Applications/Arduino.app/Contents/Resources/Java/lib/version.txt'
p29
tp30
a(S'used_libs'
p31
(lp32
S'lib/RFID'
p33
aS'/Applications/Arduino.app/Contents/Resources/Java/libraries/Servo'
p34
aS'lib/printf'
p35
aS'lib/RFCore'
p36
aS'/Applications/Arduino.app/Contents/Resources/Java/libraries/SoftwareSerial'
p37
aS'lib/rf24'
p38
aS'/Applications/Arduino.app/Contents/Resources/Java/libraries/SPI'
p39
aS'/Applications/Arduino.app/Contents/Resources/Java/hardware/arduino/cores/arduino'
p40
atp41
a(S'cc'
p42
S'/Applications/Arduino.app/Contents/Resources/Java/hardware/tools/avr/bin/avr-gcc'
p43
tp44
a(S'make'
p45
S'/Applications/Arduino.app/Contents/Resources/Java/hardware/tools/avr/bin/make'
p46
tp47
a(S'build_dir'
p48
S'.build/uno'
p49
tp50
a(S'arduino_core_dir'
p51
g40
tp52
a(S'boards.txt'
p53
S'/Applications/Arduino.app/Contents/Resources/Java/hardware/arduino/boards.txt'
p54
tp55
a(S'cxxflags'
p56
g2
(g3
g4
(lp57
S'-fno-exceptions'
p58
atp59
Rp60
tp61
a(S'arduino_variants_dir'
p62
S'/Applications/Arduino.app/Contents/Resources/Java/hardware/arduino/variants'
p63
tp64
a(S'deps'
p65
g2
(g3
g4
(lp66
S'.build/uno/src/dependencies.d'
p67
aS'.build/uno/arduino/dependencies.d'
p68
aS'.build/uno/RFID/dependencies.d'
p69
aS'.build/uno/SPI/dependencies.d'
p70
aS'.build/uno/SoftwareSerial/dependencies.d'
p71
aS'.build/uno/Servo/dependencies.d'
p72
aS'.build/uno/rf24/dependencies.d'
p73
aS'.build/uno/printf/dependencies.d'
p74
aS'.build/uno/RFCore/dependencies.d'
p75
atp76
Rp77
tp78
a(S'ar'
p79
S'/Applications/Arduino.app/Contents/Resources/Java/hardware/tools/avr/bin/avr-ar'
p80
tp81
a(S'names'
p82
(dp83
S'cpp'
p84
S'%s.cpp'
p85
sS'obj'
p86
S'%s.o'
p87
sg65
S'%s.d'
p88
sS'lib'
p89
S'lib%s.a'
p90
stp91
a(S'cflags'
p92
g2
(g3
g4
(lp93
tp94
Rp95
tp96
a(S'ldflags'
p97
g2
(g3
g4
(lp98
g6
aS'-Wl,-Os'
p99
aS'-Wl,--gc-sections'
p100
atp101
Rp102
tp103
a(S'arduino_libraries_dir'
p104
S'/Applications/Arduino.app/Contents/Resources/Java/libraries'
p105
tp106
a(S'arduino_lib_version'
p107
g2
(cino.environment
Version
p108
c__builtin__
tuple
p109
(I1
I0
I5
tp110
tp111
Rp112
tp113
a(S'objcopy'
p114
S'/Applications/Arduino.app/Contents/Resources/Java/hardware/tools/avr/bin/avr-objcopy'
p115
tp116
a(S'board_models'
p117
cino.environment
BoardModels
p118
((lp119
(lp120
S'uno'
p121
a(dp122
S'build'
p123
(dp124
S'core'
p125
S'arduino'
p126
sS'mcu'
p127
S'atmega328p'
p128
sS'f_cpu'
p129
S'16000000L'
p130
sS'variant'
p131
S'standard'
p132
ssS'bootloader'
p133
(dp134
S'extended_fuses'
p135
S'0x05'
p136
sS'high_fuses'
p137
S'0xde'
p138
sS'low_fuses'
p139
S'0xff'
p140
sS'lock_bits'
p141
S'0x0F'
p142
sS'file'
p143
S'optiboot_atmega328.hex'
p144
sS'path'
p145
S'optiboot'
p146
sS'unlock_bits'
p147
S'0x3F'
p148
ssS'name'
p149
S'Arduino Uno'
p150
sS'upload'
p151
(dp152
S'speed'
p153
S'115200'
p154
sS'maximum_size'
p155
S'32256'
p156
sS'protocol'
p157
S'arduino'
p158
ssaa(lp159
S'atmega328'
p160
a(dp161
S'build'
p162
(dp163
S'core'
p164
S'arduino'
p165
sS'mcu'
p166
S'atmega328p'
p167
sS'f_cpu'
p168
S'16000000L'
p169
sS'variant'
p170
S'standard'
p171
ssS'bootloader'
p172
(dp173
S'extended_fuses'
p174
S'0x05'
p175
sS'high_fuses'
p176
S'0xDA'
p177
sS'low_fuses'
p178
S'0xFF'
p179
sS'lock_bits'
p180
S'0x0F'
p181
sS'file'
p182
S'ATmegaBOOT_168_atmega328.hex'
p183
sS'path'
p184
S'atmega'
p185
sS'unlock_bits'
p186
S'0x3F'
p187
ssS'name'
p188
S'Arduino Duemilanove w/ ATmega328'
p189
sS'upload'
p190
(dp191
S'speed'
p192
S'57600'
p193
sS'maximum_size'
p194
S'30720'
p195
sS'protocol'
p196
S'arduino'
p197
ssaa(lp198
S'diecimila'
p199
a(dp200
S'build'
p201
(dp202
S'core'
p203
S'arduino'
p204
sS'mcu'
p205
S'atmega168'
p206
sS'f_cpu'
p207
S'16000000L'
p208
sS'variant'
p209
S'standard'
p210
ssS'bootloader'
p211
(dp212
S'extended_fuses'
p213
S'0x00'
p214
sS'high_fuses'
p215
S'0xdd'
p216
sS'low_fuses'
p217
S'0xff'
p218
sS'lock_bits'
p219
S'0x0F'
p220
sS'file'
p221
S'ATmegaBOOT_168_diecimila.hex'
p222
sS'path'
p223
S'atmega'
p224
sS'unlock_bits'
p225
S'0x3F'
p226
ssS'name'
p227
S'Arduino Diecimila or Duemilanove w/ ATmega168'
p228
sS'upload'
p229
(dp230
S'speed'
p231
S'19200'
p232
sS'maximum_size'
p233
S'14336'
p234
sS'protocol'
p235
S'arduino'
p236
ssaa(lp237
S'nano328'
p238
a(dp239
S'build'
p240
(dp241
S'core'
p242
S'arduino'
p243
sS'mcu'
p244
S'atmega328p'
p245
sS'f_cpu'
p246
S'16000000L'
p247
sS'variant'
p248
S'eightanaloginputs'
p249
ssS'bootloader'
p250
(dp251
S'extended_fuses'
p252
S'0x05'
p253
sS'high_fuses'
p254
S'0xDA'
p255
sS'low_fuses'
p256
S'0xFF'
p257
sS'lock_bits'
p258
S'0x0F'
p259
sS'file'
p260
S'ATmegaBOOT_168_atmega328.hex'
p261
sS'path'
p262
S'atmega'
p263
sS'unlock_bits'
p264
S'0x3F'
p265
ssS'name'
p266
S'Arduino Nano w/ ATmega328'
p267
sS'upload'
p268
(dp269
S'speed'
p270
S'57600'
p271
sS'maximum_size'
p272
S'30720'
p273
sS'protocol'
p274
S'arduino'
p275
ssaa(lp276
S'nano'
p277
a(dp278
S'build'
p279
(dp280
S'core'
p281
S'arduino'
p282
sS'mcu'
p283
S'atmega168'
p284
sS'f_cpu'
p285
S'16000000L'
p286
sS'variant'
p287
S'eightanaloginputs'
p288
ssS'bootloader'
p289
(dp290
S'extended_fuses'
p291
S'0x00'
p292
sS'high_fuses'
p293
S'0xdd'
p294
sS'low_fuses'
p295
S'0xff'
p296
sS'lock_bits'
p297
S'0x0F'
p298
sS'file'
p299
S'ATmegaBOOT_168_diecimila.hex'
p300
sS'path'
p301
S'atmega'
p302
sS'unlock_bits'
p303
S'0x3F'
p304
ssS'name'
p305
S'Arduino Nano w/ ATmega168'
p306
sS'upload'
p307
(dp308
S'speed'
p309
S'19200'
p310
sS'maximum_size'
p311
S'14336'
p312
sS'protocol'
p313
S'arduino'
p314
ssaa(lp315
S'mega2560'
p316
a(dp317
S'build'
p318
(dp319
S'core'
p320
S'arduino'
p321
sS'mcu'
p322
S'atmega2560'
p323
sS'f_cpu'
p324
S'16000000L'
p325
sS'variant'
p326
S'mega'
p327
ssS'bootloader'
p328
(dp329
S'extended_fuses'
p330
S'0xFD'
p331
sS'high_fuses'
p332
S'0xD8'
p333
sS'low_fuses'
p334
S'0xFF'
p335
sS'lock_bits'
p336
S'0x0F'
p337
sS'file'
p338
S'stk500boot_v2_mega2560.hex'
p339
sS'path'
p340
S'stk500v2'
p341
sS'unlock_bits'
p342
S'0x3F'
p343
ssS'name'
p344
S'Arduino Mega 2560 or Mega ADK'
p345
sS'upload'
p346
(dp347
S'speed'
p348
S'115200'
p349
sS'maximum_size'
p350
S'258048'
p351
sS'protocol'
p352
S'wiring'
p353
ssaa(lp354
S'mega'
p355
a(dp356
S'build'
p357
(dp358
S'core'
p359
S'arduino'
p360
sS'mcu'
p361
S'atmega1280'
p362
sS'f_cpu'
p363
S'16000000L'
p364
sS'variant'
p365
S'mega'
p366
ssS'bootloader'
p367
(dp368
S'extended_fuses'
p369
S'0xF5'
p370
sS'high_fuses'
p371
S'0xDA'
p372
sS'low_fuses'
p373
S'0xFF'
p374
sS'lock_bits'
p375
S'0x0F'
p376
sS'file'
p377
S'ATmegaBOOT_168_atmega1280.hex'
p378
sS'path'
p379
S'atmega'
p380
sS'unlock_bits'
p381
S'0x3F'
p382
ssS'name'
p383
S'Arduino Mega (ATmega1280)'
p384
sS'upload'
p385
(dp386
S'speed'
p387
S'57600'
p388
sS'maximum_size'
p389
S'126976'
p390
sS'protocol'
p391
S'arduino'
p392
ssaa(lp393
S'leonardo'
p394
a(dp395
S'build'
p396
(dp397
S'core'
p398
S'arduino'
p399
sS'f_cpu'
p400
S'16000000L'
p401
sS'vid'
p402
S'0x2341'
p403
sS'pid'
p404
S'0x8036'
p405
sS'variant'
p406
S'leonardo'
p407
sS'mcu'
p408
S'atmega32u4'
p409
ssS'bootloader'
p410
(dp411
S'extended_fuses'
p412
S'0xcb'
p413
sS'high_fuses'
p414
S'0xd8'
p415
sS'low_fuses'
p416
S'0xff'
p417
sS'lock_bits'
p418
S'0x2F'
p419
sS'file'
p420
S'Caterina-Leonardo.hex'
p421
sS'path'
p422
S'caterina'
p423
sS'unlock_bits'
p424
S'0x3F'
p425
ssS'name'
p426
S'Arduino Leonardo'
p427
sS'upload'
p428
(dp429
S'speed'
p430
S'57600'
p431
sS'maximum_size'
p432
S'28672'
p433
sS'protocol'
p434
S'avr109'
p435
sS'disable_flushing'
p436
S'true'
p437
ssaa(lp438
S'esplora'
p439
a(dp440
S'build'
p441
(dp442
S'core'
p443
S'arduino'
p444
sS'f_cpu'
p445
S'16000000L'
p446
sS'vid'
p447
S'0x2341'
p448
sS'pid'
p449
S'0x803C'
p450
sS'variant'
p451
S'leonardo'
p452
sS'mcu'
p453
S'atmega32u4'
p454
ssS'bootloader'
p455
(dp456
S'extended_fuses'
p457
S'0xcb'
p458
sS'high_fuses'
p459
S'0xd8'
p460
sS'low_fuses'
p461
S'0xff'
p462
sS'lock_bits'
p463
S'0x2F'
p464
sS'file'
p465
S'Caterina-Esplora.hex'
p466
sS'path'
p467
S'caterina'
p468
sS'unlock_bits'
p469
S'0x3F'
p470
ssS'name'
p471
S'Arduino Esplora'
p472
sS'upload'
p473
(dp474
S'speed'
p475
S'57600'
p476
sS'maximum_size'
p477
S'28672'
p478
sS'protocol'
p479
S'avr109'
p480
sS'disable_flushing'
p481
S'true'
p482
ssaa(lp483
S'micro'
p484
a(dp485
S'build'
p486
(dp487
S'core'
p488
S'arduino'
p489
sS'f_cpu'
p490
S'16000000L'
p491
sS'vid'
p492
S'0x2341'
p493
sS'pid'
p494
S'0x8037'
p495
sS'variant'
p496
S'micro'
p497
sS'mcu'
p498
S'atmega32u4'
p499
ssS'bootloader'
p500
(dp501
S'extended_fuses'
p502
S'0xcb'
p503
sS'high_fuses'
p504
S'0xd8'
p505
sS'low_fuses'
p506
S'0xff'
p507
sS'lock_bits'
p508
S'0x2F'
p509
sS'file'
p510
S'Caterina-Micro.hex'
p511
sS'path'
p512
S'caterina'
p513
sS'unlock_bits'
p514
S'0x3F'
p515
ssS'name'
p516
S'Arduino Micro'
p517
sS'upload'
p518
(dp519
S'speed'
p520
S'57600'
p521
sS'maximum_size'
p522
S'28672'
p523
sS'protocol'
p524
S'avr109'
p525
sS'disable_flushing'
p526
S'true'
p527
ssaa(lp528
S'mini328'
p529
a(dp530
S'build'
p531
(dp532
S'core'
p533
S'arduino'
p534
sS'mcu'
p535
S'atmega328p'
p536
sS'f_cpu'
p537
S'16000000L'
p538
sS'variant'
p539
S'eightanaloginputs'
p540
ssS'bootloader'
p541
(dp542
S'extended_fuses'
p543
S'0x05'
p544
sS'high_fuses'
p545
S'0xd8'
p546
sS'low_fuses'
p547
S'0xff'
p548
sS'lock_bits'
p549
S'0x0F'
p550
sS'file'
p551
S'optiboot_atmega328-Mini.hex'
p552
sS'path'
p553
S'optiboot'
p554
sS'unlock_bits'
p555
S'0x3F'
p556
ssS'name'
p557
S'Arduino Mini w/ ATmega328'
p558
sS'upload'
p559
(dp560
S'speed'
p561
S'115200'
p562
sS'maximum_size'
p563
S'28672'
p564
sS'protocol'
p565
S'arduino'
p566
ssaa(lp567
S'mini'
p568
a(dp569
S'build'
p570
(dp571
S'core'
p572
S'arduino'
p573
sS'mcu'
p574
S'atmega168'
p575
sS'f_cpu'
p576
S'16000000L'
p577
sS'variant'
p578
S'eightanaloginputs'
p579
ssS'bootloader'
p580
(dp581
S'extended_fuses'
p582
S'0x00'
p583
sS'high_fuses'
p584
S'0xdd'
p585
sS'low_fuses'
p586
S'0xff'
p587
sS'lock_bits'
p588
S'0x0F'
p589
sS'file'
p590
S'ATmegaBOOT_168_ng.hex'
p591
sS'path'
p592
S'atmega'
p593
sS'unlock_bits'
p594
S'0x3F'
p595
ssS'name'
p596
S'Arduino Mini w/ ATmega168'
p597
sS'upload'
p598
(dp599
S'speed'
p600
S'19200'
p601
sS'maximum_size'
p602
S'14336'
p603
sS'protocol'
p604
S'arduino'
p605
ssaa(lp606
S'ethernet'
p607
a(dp608
S'build'
p609
(dp610
S'f_cpu'
p611
S'16000000L'
p612
sS'mcu'
p613
S'atmega328p'
p614
sS'variant'
p615
S'standard'
p616
sS'core'
p617
S'arduino'
p618
ssS'bootloader'
p619
(dp620
S'extended_fuses'
p621
S'0x05'
p622
sS'high_fuses'
p623
S'0xde'
p624
sS'low_fuses'
p625
S'0xff'
p626
sS'lock_bits'
p627
S'0x0F'
p628
sS'file'
p629
S'optiboot_atmega328.hex'
p630
sS'path'
p631
S'optiboot'
p632
sS'unlock_bits'
p633
S'0x3F'
p634
ssS'name'
p635
S'Arduino Ethernet'
p636
sS'upload'
p637
(dp638
S'speed'
p639
S'115200'
p640
sS'maximum_size'
p641
S'32256'
p642
sS'protocol'
p643
S'arduino'
p644
ssaa(lp645
S'fio'
p646
a(dp647
S'build'
p648
(dp649
S'core'
p650
S'arduino'
p651
sS'mcu'
p652
S'atmega328p'
p653
sS'f_cpu'
p654
S'8000000L'
p655
sS'variant'
p656
S'eightanaloginputs'
p657
ssS'bootloader'
p658
(dp659
S'extended_fuses'
p660
S'0x05'
p661
sS'high_fuses'
p662
S'0xDA'
p663
sS'low_fuses'
p664
S'0xFF'
p665
sS'lock_bits'
p666
S'0x0F'
p667
sS'file'
p668
S'ATmegaBOOT_168_atmega328_pro_8MHz.hex'
p669
sS'path'
p670
S'arduino:atmega'
p671
sS'unlock_bits'
p672
S'0x3F'
p673
ssS'name'
p674
S'Arduino Fio'
p675
sS'upload'
p676
(dp677
S'speed'
p678
S'57600'
p679
sS'maximum_size'
p680
S'30720'
p681
sS'protocol'
p682
S'arduino'
p683
ssaa(lp684
S'bt328'
p685
a(dp686
S'build'
p687
(dp688
S'core'
p689
S'arduino'
p690
sS'mcu'
p691
S'atmega328p'
p692
sS'f_cpu'
p693
S'16000000L'
p694
sS'variant'
p695
S'eightanaloginputs'
p696
ssS'bootloader'
p697
(dp698
S'extended_fuses'
p699
S'0x05'
p700
sS'high_fuses'
p701
S'0xd8'
p702
sS'low_fuses'
p703
S'0xff'
p704
sS'lock_bits'
p705
S'0x0F'
p706
sS'file'
p707
S'ATmegaBOOT_168_atmega328_bt.hex'
p708
sS'path'
p709
S'bt'
p710
sS'unlock_bits'
p711
S'0x3F'
p712
ssS'name'
p713
S'Arduino BT w/ ATmega328'
p714
sS'upload'
p715
(dp716
S'speed'
p717
S'19200'
p718
sS'maximum_size'
p719
S'28672'
p720
sS'protocol'
p721
S'arduino'
p722
sS'disable_flushing'
p723
S'true'
p724
ssaa(lp725
S'bt'
p726
a(dp727
S'build'
p728
(dp729
S'core'
p730
S'arduino'
p731
sS'mcu'
p732
S'atmega168'
p733
sS'f_cpu'
p734
S'16000000L'
p735
sS'variant'
p736
S'eightanaloginputs'
p737
ssS'bootloader'
p738
(dp739
S'extended_fuses'
p740
S'0x00'
p741
sS'high_fuses'
p742
S'0xdd'
p743
sS'low_fuses'
p744
S'0xff'
p745
sS'lock_bits'
p746
S'0x0F'
p747
sS'file'
p748
S'ATmegaBOOT_168.hex'
p749
sS'path'
p750
S'bt'
p751
sS'unlock_bits'
p752
S'0x3F'
p753
ssS'name'
p754
S'Arduino BT w/ ATmega168'
p755
sS'upload'
p756
(dp757
S'speed'
p758
S'19200'
p759
sS'maximum_size'
p760
S'14336'
p761
sS'protocol'
p762
S'arduino'
p763
sS'disable_flushing'
p764
S'true'
p765
ssaa(lp766
S'LilyPadUSB'
p767
a(dp768
S'build'
p769
(dp770
S'core'
p771
S'arduino'
p772
sS'f_cpu'
p773
S'8000000L'
p774
sS'vid'
p775
S'0x1B4F'
p776
sS'pid'
p777
S'0x9208'
p778
sS'variant'
p779
S'leonardo'
p780
sS'mcu'
p781
S'atmega32u4'
p782
ssS'bootloader'
p783
(dp784
S'extended_fuses'
p785
S'0xce'
p786
sS'high_fuses'
p787
S'0xd8'
p788
sS'low_fuses'
p789
S'0xff'
p790
sS'lock_bits'
p791
S'0x2F'
p792
sS'file'
p793
S'Caterina-LilyPadUSB.hex'
p794
sS'path'
p795
S'caterina-LilyPadUSB'
p796
sS'unlock_bits'
p797
S'0x3F'
p798
ssS'name'
p799
S'LilyPad Arduino USB'
p800
sS'upload'
p801
(dp802
S'speed'
p803
S'57600'
p804
sS'maximum_size'
p805
S'28672'
p806
sS'protocol'
p807
S'avr109'
p808
sS'disable_flushing'
p809
S'true'
p810
ssaa(lp811
S'lilypad328'
p812
a(dp813
S'build'
p814
(dp815
S'core'
p816
S'arduino'
p817
sS'mcu'
p818
S'atmega328p'
p819
sS'f_cpu'
p820
S'8000000L'
p821
sS'variant'
p822
S'standard'
p823
ssS'bootloader'
p824
(dp825
S'extended_fuses'
p826
S'0x05'
p827
sS'high_fuses'
p828
S'0xDA'
p829
sS'low_fuses'
p830
S'0xFF'
p831
sS'lock_bits'
p832
S'0x0F'
p833
sS'file'
p834
S'ATmegaBOOT_168_atmega328_pro_8MHz.hex'
p835
sS'path'
p836
S'atmega'
p837
sS'unlock_bits'
p838
S'0x3F'
p839
ssS'name'
p840
S'LilyPad Arduino w/ ATmega328'
p841
sS'upload'
p842
(dp843
S'speed'
p844
S'57600'
p845
sS'maximum_size'
p846
S'30720'
p847
sS'protocol'
p848
S'arduino'
p849
ssaa(lp850
S'lilypad'
p851
a(dp852
S'build'
p853
(dp854
S'core'
p855
S'arduino'
p856
sS'mcu'
p857
S'atmega168'
p858
sS'f_cpu'
p859
S'8000000L'
p860
sS'variant'
p861
S'standard'
p862
ssS'bootloader'
p863
(dp864
S'extended_fuses'
p865
S'0x00'
p866
sS'high_fuses'
p867
S'0xdd'
p868
sS'low_fuses'
p869
S'0xe2'
p870
sS'lock_bits'
p871
S'0x0F'
p872
sS'file'
p873
S'LilyPadBOOT_168.hex'
p874
sS'path'
p875
S'lilypad'
p876
sS'unlock_bits'
p877
S'0x3F'
p878
ssS'name'
p879
S'LilyPad Arduino w/ ATmega168'
p880
sS'upload'
p881
(dp882
S'speed'
p883
S'19200'
p884
sS'maximum_size'
p885
S'14336'
p886
sS'protocol'
p887
S'arduino'
p888
ssaa(lp889
S'pro5v328'
p890
a(dp891
S'build'
p892
(dp893
S'core'
p894
S'arduino'
p895
sS'mcu'
p896
S'atmega328p'
p897
sS'f_cpu'
p898
S'16000000L'
p899
sS'variant'
p900
S'standard'
p901
ssS'bootloader'
p902
(dp903
S'extended_fuses'
p904
S'0x05'
p905
sS'high_fuses'
p906
S'0xDA'
p907
sS'low_fuses'
p908
S'0xFF'
p909
sS'lock_bits'
p910
S'0x0F'
p911
sS'file'
p912
S'ATmegaBOOT_168_atmega328.hex'
p913
sS'path'
p914
S'atmega'
p915
sS'unlock_bits'
p916
S'0x3F'
p917
ssS'name'
p918
S'Arduino Pro or Pro Mini (5V, 16 MHz) w/ ATmega328'
p919
sS'upload'
p920
(dp921
S'speed'
p922
S'57600'
p923
sS'maximum_size'
p924
S'30720'
p925
sS'protocol'
p926
S'arduino'
p927
ssaa(lp928
S'pro5v'
p929
a(dp930
S'build'
p931
(dp932
S'core'
p933
S'arduino'
p934
sS'mcu'
p935
S'atmega168'
p936
sS'f_cpu'
p937
S'16000000L'
p938
sS'variant'
p939
S'standard'
p940
ssS'bootloader'
p941
(dp942
S'extended_fuses'
p943
S'0x00'
p944
sS'high_fuses'
p945
S'0xdd'
p946
sS'low_fuses'
p947
S'0xff'
p948
sS'lock_bits'
p949
S'0x0F'
p950
sS'file'
p951
S'ATmegaBOOT_168_diecimila.hex'
p952
sS'path'
p953
S'atmega'
p954
sS'unlock_bits'
p955
S'0x3F'
p956
ssS'name'
p957
S'Arduino Pro or Pro Mini (5V, 16 MHz) w/ ATmega168'
p958
sS'upload'
p959
(dp960
S'speed'
p961
S'19200'
p962
sS'maximum_size'
p963
S'14336'
p964
sS'protocol'
p965
S'arduino'
p966
ssaa(lp967
S'pro328'
p968
a(dp969
S'build'
p970
(dp971
S'core'
p972
S'arduino'
p973
sS'mcu'
p974
S'atmega328p'
p975
sS'f_cpu'
p976
S'8000000L'
p977
sS'variant'
p978
S'standard'
p979
ssS'bootloader'
p980
(dp981
S'extended_fuses'
p982
S'0x05'
p983
sS'high_fuses'
p984
S'0xDA'
p985
sS'low_fuses'
p986
S'0xFF'
p987
sS'lock_bits'
p988
S'0x0F'
p989
sS'file'
p990
S'ATmegaBOOT_168_atmega328_pro_8MHz.hex'
p991
sS'path'
p992
S'atmega'
p993
sS'unlock_bits'
p994
S'0x3F'
p995
ssS'name'
p996
S'Arduino Pro or Pro Mini (3.3V, 8 MHz) w/ ATmega328'
p997
sS'upload'
p998
(dp999
S'speed'
p1000
S'57600'
p1001
sS'maximum_size'
p1002
S'30720'
p1003
sS'protocol'
p1004
S'arduino'
p1005
ssaa(lp1006
S'pro'
p1007
a(dp1008
S'build'
p1009
(dp1010
S'core'
p1011
S'arduino'
p1012
sS'mcu'
p1013
S'atmega168'
p1014
sS'f_cpu'
p1015
S'8000000L'
p1016
sS'variant'
p1017
S'standard'
p1018
ssS'bootloader'
p1019
(dp1020
S'extended_fuses'
p1021
S'0x00'
p1022
sS'high_fuses'
p1023
S'0xdd'
p1024
sS'low_fuses'
p1025
S'0xc6'
p1026
sS'lock_bits'
p1027
S'0x0F'
p1028
sS'file'
p1029
S'ATmegaBOOT_168_pro_8MHz.hex'
p1030
sS'path'
p1031
S'atmega'
p1032
sS'unlock_bits'
p1033
S'0x3F'
p1034
ssS'name'
p1035
S'Arduino Pro or Pro Mini (3.3V, 8 MHz) w/ ATmega168'
p1036
sS'upload'
p1037
(dp1038
S'speed'
p1039
S'19200'
p1040
sS'maximum_size'
p1041
S'14336'
p1042
sS'protocol'
p1043
S'arduino'
p1044
ssaa(lp1045
S'atmega168'
p1046
a(dp1047
S'build'
p1048
(dp1049
S'core'
p1050
S'arduino'
p1051
sS'mcu'
p1052
S'atmega168'
p1053
sS'f_cpu'
p1054
S'16000000L'
p1055
sS'variant'
p1056
S'standard'
p1057
ssS'bootloader'
p1058
(dp1059
S'extended_fuses'
p1060
S'0x00'
p1061
sS'high_fuses'
p1062
S'0xdd'
p1063
sS'low_fuses'
p1064
S'0xff'
p1065
sS'lock_bits'
p1066
S'0x0F'
p1067
sS'file'
p1068
S'ATmegaBOOT_168_ng.hex'
p1069
sS'path'
p1070
S'atmega'
p1071
sS'unlock_bits'
p1072
S'0x3F'
p1073
ssS'name'
p1074
S'Arduino NG or older w/ ATmega168'
p1075
sS'upload'
p1076
(dp1077
S'speed'
p1078
S'19200'
p1079
sS'maximum_size'
p1080
S'14336'
p1081
sS'protocol'
p1082
S'arduino'
p1083
ssaa(lp1084
S'atmega8'
p1085
a(dp1086
S'build'
p1087
(dp1088
S'core'
p1089
S'arduino'
p1090
sS'mcu'
p1091
S'atmega8'
p1092
sS'f_cpu'
p1093
S'16000000L'
p1094
sS'variant'
p1095
S'standard'
p1096
ssS'bootloader'
p1097
(dp1098
S'high_fuses'
p1099
S'0xca'
p1100
sS'low_fuses'
p1101
S'0xdf'
p1102
sS'lock_bits'
p1103
S'0x0F'
p1104
sS'file'
p1105
S'ATmegaBOOT-prod-firmware-2009-11-07.hex'
p1106
sS'path'
p1107
S'atmega8'
p1108
sS'unlock_bits'
p1109
S'0x3F'
p1110
ssS'name'
p1111
S'Arduino NG or older w/ ATmega8'
p1112
sS'upload'
p1113
(dp1114
S'speed'
p1115
S'19200'
p1116
sS'maximum_size'
p1117
S'7168'
p1118
sS'protocol'
p1119
S'arduino'
p1120
ssaa(lp1121
S'robotControl'
p1122
a(dp1123
S'build'
p1124
(dp1125
S'core'
p1126
S'robot'
p1127
sS'f_cpu'
p1128
S'16000000L'
p1129
sS'vid'
p1130
S'0x2341'
p1131
sS'pid'
p1132
S'0x8038'
p1133
sS'variant'
p1134
S'robot_control'
p1135
sS'mcu'
p1136
S'atmega32u4'
p1137
ssS'bootloader'
p1138
(dp1139
S'extended_fuses'
p1140
S'0xcb'
p1141
sS'high_fuses'
p1142
S'0xd8'
p1143
sS'low_fuses'
p1144
S'0xff'
p1145
sS'lock_bits'
p1146
S'0x2F'
p1147
sS'file'
p1148
S'Caterina-Robot-Control.hex'
p1149
sS'path'
p1150
S'caterina-Arduino_Robot'
p1151
sS'unlock_bits'
p1152
S'0x3F'
p1153
ssS'name'
p1154
S'Arduino Robot Control'
p1155
sS'upload'
p1156
(dp1157
S'speed'
p1158
S'57600'
p1159
sS'maximum_size'
p1160
S'28672'
p1161
sS'protocol'
p1162
S'avr109'
p1163
sS'disable_flushing'
p1164
S'true'
p1165
ssaa(lp1166
S'robotMotor'
p1167
a(dp1168
S'build'
p1169
(dp1170
S'core'
p1171
S'robot'
p1172
sS'f_cpu'
p1173
S'16000000L'
p1174
sS'vid'
p1175
S'0x2341'
p1176
sS'pid'
p1177
S'0x8039'
p1178
sS'variant'
p1179
S'robot_motor'
p1180
sS'mcu'
p1181
S'atmega32u4'
p1182
ssS'bootloader'
p1183
(dp1184
S'extended_fuses'
p1185
S'0xcb'
p1186
sS'high_fuses'
p1187
S'0xd8'
p1188
sS'low_fuses'
p1189
S'0xff'
p1190
sS'lock_bits'
p1191
S'0x2F'
p1192
sS'file'
p1193
S'Caterina-Robot-Motor.hex'
p1194
sS'path'
p1195
S'caterina-Arduino_Robot'
p1196
sS'unlock_bits'
p1197
S'0x3F'
p1198
ssS'name'
p1199
S'Arduino Robot Motor'
p1200
sS'upload'
p1201
(dp1202
S'speed'
p1203
S'57600'
p1204
sS'maximum_size'
p1205
S'28672'
p1206
sS'protocol'
p1207
S'avr109'
p1208
sS'disable_flushing'
p1209
S'true'
p1210
ssaatp1211
Rp1212
(dp1213
S'default'
p1214
S'uno'
p1215
sbtp1216
a(S'cxx'
p1217
S'/Applications/Arduino.app/Contents/Resources/Java/hardware/tools/avr/bin/avr-g++'
p1218
tp1219
a.